target datalayout = "e-m:e-p270:32:32-p271:32:32-p272:64:64-i64:64-i128:128-f80:128-n8:16:32:64-S128"
target triple = "x86_64-pc-linux-gnu"

%struct.SDL_WaylandDataSource = type { ptr, ptr, ptr, %struct.SDL_WaylandUserdata }
%struct.SDL_WaylandUserdata = type { i32, ptr }
%struct.SDL_WaylandDataDevice = type { ptr, ptr, ptr, i32, ptr, ptr, ptr, i8, i8, ptr, i32, ptr }

@.str = private unnamed_addr constant [29 x i8] c"application/x-sdl3-source-id\00", align 1

; Function Attrs: nounwind uwtable
define hidden i64 @Wayland_data_source_send(ptr noundef %0, ptr noundef %1, i32 noundef %2) #0 {
  %4 = alloca ptr, align 8
  %5 = alloca ptr, align 8
  %6 = alloca i32, align 4
  %7 = alloca ptr, align 8
  %8 = alloca i64, align 8
  store ptr %0, ptr %4, align 8
  store ptr %1, ptr %5, align 8
  store i32 %2, ptr %6, align 4
  call void @llvm.lifetime.start.p0(i64 8, ptr %7) #9
  store ptr null, ptr %7, align 8
  call void @llvm.lifetime.start.p0(i64 8, ptr %8) #9
  store i64 0, ptr %8, align 8
  %9 = load ptr, ptr %5, align 8
  %10 = call i32 @SDL_strcmp_REAL(ptr noundef %9, ptr noundef @.str)
  %11 = icmp eq i32 %10, 0
  br i1 %11, label %12, label %24

12:                                               ; preds = %3
  %13 = load ptr, ptr %4, align 8
  %14 = getelementptr inbounds nuw %struct.SDL_WaylandDataSource, ptr %13, i32 0, i32 1
  %15 = load ptr, ptr %14, align 8
  %16 = getelementptr inbounds nuw %struct.SDL_WaylandDataDevice, ptr %15, i32 0, i32 2
  %17 = load ptr, ptr %16, align 8
  store ptr %17, ptr %7, align 8
  %18 = load ptr, ptr %4, align 8
  %19 = getelementptr inbounds nuw %struct.SDL_WaylandDataSource, ptr %18, i32 0, i32 1
  %20 = load ptr, ptr %19, align 8
  %21 = getelementptr inbounds nuw %struct.SDL_WaylandDataDevice, ptr %20, i32 0, i32 2
  %22 = load ptr, ptr %21, align 8
  %23 = call i64 @SDL_strlen_REAL(ptr noundef %22)
  store i64 %23, ptr %8, align 8
  br label %40

24:                                               ; preds = %3
  %25 = load ptr, ptr %4, align 8
  %26 = getelementptr inbounds nuw %struct.SDL_WaylandDataSource, ptr %25, i32 0, i32 2
  %27 = load ptr, ptr %26, align 8
  %28 = icmp ne ptr %27, null
  br i1 %28, label %29, label %39

29:                                               ; preds = %24
  %30 = load ptr, ptr %4, align 8
  %31 = getelementptr inbounds nuw %struct.SDL_WaylandDataSource, ptr %30, i32 0, i32 2
  %32 = load ptr, ptr %31, align 8
  %33 = load ptr, ptr %4, align 8
  %34 = getelementptr inbounds nuw %struct.SDL_WaylandDataSource, ptr %33, i32 0, i32 3
  %35 = getelementptr inbounds nuw %struct.SDL_WaylandUserdata, ptr %34, i32 0, i32 1
  %36 = load ptr, ptr %35, align 8
  %37 = load ptr, ptr %5, align 8
  %38 = call ptr %32(ptr noundef %36, ptr noundef %37, ptr noundef %8)
  store ptr %38, ptr %7, align 8
  br label %39

39:                                               ; preds = %29, %24
  br label %40

40:                                               ; preds = %39, %12
  %41 = load ptr, ptr %7, align 8
  %42 = load i64, ptr %8, align 8
  %43 = load i32, ptr %6, align 4
  %44 = call i64 @Wayland_send_data(ptr noundef %41, i64 noundef %42, i32 noundef %43)
  call void @llvm.lifetime.end.p0(i64 8, ptr %8) #9
  call void @llvm.lifetime.end.p0(i64 8, ptr %7) #9
  ret i64 %44
}