; Function Attrs: nounwind uwtable
define hidden i64 @Wayland_data_source_send(ptr noundef readonly captures(none) %0, ptr noundef %1, i32 noundef %2) local_unnamed_addr #0 {
  %4 = alloca i64, align 8
  call void @llvm.lifetime.start.p0(i64 8, ptr nonnull %4) #12
  store i64 0, ptr %4, align 8
  %5 = tail call i32 @SDL_strcmp_REAL(ptr noundef %1, ptr noundef nonnull @.str) #12
  %6 = icmp eq i32 %5, 0
  br i1 %6, label %7, label %13

7:                                                ; preds = %3
  %8 = getelementptr inbounds nuw i8, ptr %0, i64 8
  %9 = load ptr, ptr %8, align 8
  %10 = getelementptr inbounds nuw i8, ptr %9, i64 16
  %11 = load ptr, ptr %10, align 8
  %12 = tail call i64 @SDL_strlen_REAL(ptr noundef %11) #12
  store i64 %12, ptr %4, align 8
  br label %20

13:                                               ; preds = %3
  %14 = getelementptr inbounds nuw i8, ptr %0, i64 16
  %15 = load ptr, ptr %14, align 8
  %.not = icmp eq ptr %15, null
  br i1 %.not, label %20, label %16

16:                                               ; preds = %13
  %17 = getelementptr inbounds nuw i8, ptr %0, i64 32
  %18 = load ptr, ptr %17, align 8
  %19 = call ptr %15(ptr noundef %18, ptr noundef %1, ptr noundef nonnull %4) #12
  %.pre = load i64, ptr %4, align 8
  br label %20

20:                                               ; preds = %13, %16, %7
  %21 = phi i64 [ %12, %7 ], [ %.pre, %16 ], [ 0, %13 ]
  %.0 = phi ptr [ %11, %7 ], [ %19, %16 ], [ null, %13 ]
  %22 = call fastcc i64 @Wayland_send_data(ptr noundef %.0, i64 noundef %21, i32 noundef %2)
  call void @llvm.lifetime.end.p0(i64 8, ptr nonnull %4) #12
  ret i64 %22
}